; Function Attrs: nounwind uwtable
define zeroext range(i8 0, 2) i8 @l_Lean_PersistentHashMap_containsAtAux___at_Lean_Server_registerLspRequestHandler___spec__7(ptr noundef readonly captures(none) %0, ptr readnone captures(none) %1, ptr readnone captures(none) %2, ptr noundef %3, ptr noundef %4) local_unnamed_addr #1 {
  %6 = getelementptr i8, ptr %0, i64 8
  %7 = getelementptr inbounds nuw i8, ptr %0, i64 24
  %8 = getelementptr i8, ptr %4, i64 8
  br label %lean_dec.exit27

lean_dec.exit27:                                  ; preds = %lean_dec.exit27.backedge, %5
  %.020 = phi ptr [ %3, %5 ], [ %.020.be, %lean_dec.exit27.backedge ]
  %.val = load i64, ptr %6, align 8, !tbaa !12
  %9 = shl i64 %.val, 1
  %10 = or disjoint i64 %9, 1
  %11 = inttoptr i64 %10 to ptr
  %12 = ptrtoint ptr %.020 to i64
  %13 = and i64 %12, 1
  %.not = icmp eq i64 %13, 0
  br i1 %.not, label %lean_dec.exit28.thread, label %lean_dec.exit28, !prof !14

lean_dec.exit28:                                  ; preds = %lean_dec.exit27
  %.not49 = icmp ult ptr %.020, %11
  br i1 %.not49, label %21, label %.loopexit

lean_dec.exit28.thread:                           ; preds = %lean_dec.exit27
  %14 = tail call zeroext i1 @lean_nat_big_lt(ptr noundef %.020, ptr noundef nonnull %11) #6
  br i1 %14, label %21, label %.thread

.thread:                                          ; preds = %lean_dec.exit28.thread
  %15 = load i32, ptr %.020, align 4, !tbaa !4
  %16 = icmp sgt i32 %15, 1
  br i1 %16, label %17, label %19, !prof !11

17:                                               ; preds = %.thread
  %18 = add nsw i32 %15, -1
  store i32 %18, ptr %.020, align 4, !tbaa !4
  br label %.loopexit

19:                                               ; preds = %.thread
  %.not.i29 = icmp eq i32 %15, 0
  br i1 %.not.i29, label %.loopexit, label %20

20:                                               ; preds = %19
  tail call void @lean_dec_ref_cold(ptr noundef nonnull %.020) #6
  br label %.loopexit

21:                                               ; preds = %lean_dec.exit28.thread, %lean_dec.exit28
  %22 = lshr i64 %12, 1
  %23 = getelementptr inbounds nuw [0 x ptr], ptr %7, i64 0, i64 %22
  %24 = load ptr, ptr %23, align 8, !tbaa !9
  %25 = ptrtoint ptr %24 to i64
  %26 = and i64 %25, 1
  %.not.i.i = icmp eq i64 %26, 0
  br i1 %.not.i.i, label %27, label %lean_array_fget.exit

27:                                               ; preds = %21
  %.val.i.i.i = load i32, ptr %24, align 4, !tbaa !4
  %28 = icmp sgt i32 %.val.i.i.i, 0
  br i1 %28, label %29, label %31, !prof !11

29:                                               ; preds = %27
  %30 = add nuw i32 %.val.i.i.i, 1
  store i32 %30, ptr %24, align 4, !tbaa !4
  br label %lean_array_fget.exit

31:                                               ; preds = %27
  %.not.i.i.i = icmp eq i32 %.val.i.i.i, 0
  br i1 %.not.i.i.i, label %lean_array_fget.exit, label %32

32:                                               ; preds = %31
  tail call void @lean_inc_ref_cold(ptr noundef nonnull %24) #6
  br label %lean_array_fget.exit

lean_array_fget.exit:                             ; preds = %21, %29, %31, %32
  %33 = icmp eq ptr %4, %24
  br i1 %33, label %lean_string_dec_eq.exit, label %34

34:                                               ; preds = %lean_array_fget.exit
  %.val.i.i = load i64, ptr %8, align 8, !tbaa !12
  %35 = getelementptr i8, ptr %24, i64 8
  %.val7.i.i = load i64, ptr %35, align 8, !tbaa !12
  %36 = icmp eq i64 %.val.i.i, %.val7.i.i
  br i1 %36, label %37, label %lean_string_dec_eq.exit

37:                                               ; preds = %34
  %38 = tail call zeroext i1 @lean_string_eq_cold(ptr noundef nonnull %4, ptr noundef nonnull %24) #6
  %39 = xor i1 %38, true
  br label %lean_string_dec_eq.exit

lean_string_dec_eq.exit:                          ; preds = %lean_array_fget.exit, %34, %37
  %40 = phi i1 [ false, %lean_array_fget.exit ], [ true, %34 ], [ %39, %37 ]
  br i1 %.not.i.i, label %41, label %lean_dec.exit26

41:                                               ; preds = %lean_string_dec_eq.exit
  %42 = load i32, ptr %24, align 4, !tbaa !4
  %43 = icmp sgt i32 %42, 1
  br i1 %43, label %44, label %46, !prof !11

44:                                               ; preds = %41
  %45 = add nsw i32 %42, -1
  store i32 %45, ptr %24, align 4, !tbaa !4
  br label %lean_dec.exit26

46:                                               ; preds = %41
  %.not.i31 = icmp eq i32 %42, 0
  br i1 %.not.i31, label %lean_dec.exit26, label %47

47:                                               ; preds = %46
  tail call void @lean_dec_ref_cold(ptr noundef nonnull %24) #6
  br label %lean_dec.exit26

lean_dec.exit26:                                  ; preds = %47, %46, %44, %lean_string_dec_eq.exit
  br i1 %40, label %48, label %66

48:                                               ; preds = %lean_dec.exit26
  br i1 %.not, label %58, label %49, !prof !14

49:                                               ; preds = %48
  %50 = add nuw i64 %22, 1
  %51 = icmp sgt i64 %50, -1
  br i1 %51, label %52, label %56, !prof !11

52:                                               ; preds = %49
  %53 = shl nuw i64 %50, 1
  %54 = or disjoint i64 %53, 1
  %55 = inttoptr i64 %54 to ptr
  br label %lean_dec.exit27.backedge

lean_dec.exit27.backedge:                         ; preds = %52, %56, %62, %64, %65
  %.020.be = phi ptr [ %59, %62 ], [ %59, %64 ], [ %59, %65 ], [ %57, %56 ], [ %55, %52 ]
  br label %lean_dec.exit27

56:                                               ; preds = %49
  %57 = tail call ptr @lean_big_usize_to_nat(i64 noundef %50) #6
  br label %lean_dec.exit27.backedge

58:                                               ; preds = %48
  %59 = tail call ptr @lean_nat_big_add(ptr noundef %.020, ptr noundef nonnull inttoptr (i64 3 to ptr)) #6
  %60 = load i32, ptr %.020, align 4, !tbaa !4
  %61 = icmp sgt i32 %60, 1
  br i1 %61, label %62, label %64, !prof !11

62:                                               ; preds = %58
  %63 = add nsw i32 %60, -1
  store i32 %63, ptr %.020, align 4, !tbaa !4
  br label %lean_dec.exit27.backedge

64:                                               ; preds = %58
  %.not.i33 = icmp eq i32 %60, 0
  br i1 %.not.i33, label %lean_dec.exit27.backedge, label %65

65:                                               ; preds = %64
  tail call void @lean_dec_ref_cold(ptr noundef nonnull %.020) #6
  br label %lean_dec.exit27.backedge

66:                                               ; preds = %lean_dec.exit26
  br i1 %.not, label %67, label %.loopexit

67:                                               ; preds = %66
  %68 = load i32, ptr %.020, align 4, !tbaa !4
  %69 = icmp sgt i32 %68, 1
  br i1 %69, label %70, label %72, !prof !11

70:                                               ; preds = %67
  %71 = add nsw i32 %68, -1
  store i32 %71, ptr %.020, align 4, !tbaa !4
  br label %.loopexit

72:                                               ; preds = %67
  %.not.i35 = icmp eq i32 %68, 0
  br i1 %.not.i35, label %.loopexit, label %73

73:                                               ; preds = %72
  tail call void @lean_dec_ref_cold(ptr noundef nonnull %.020) #6
  br label %.loopexit

.loopexit:                                        ; preds = %lean_dec.exit28, %20, %19, %17, %73, %72, %70, %66
  %.1.ph = phi i8 [ 1, %66 ], [ 1, %70 ], [ 1, %72 ], [ 1, %73 ], [ 0, %17 ], [ 0, %19 ], [ 0, %20 ], [ 0, %lean_dec.exit28 ]
  ret i8 %.1.ph
}